target datalayout = "e-m:e-p270:32:32-p271:32:32-p272:64:64-i64:64-i128:128-f80:128-n8:16:32:64-S128"
target triple = "x86_64-pc-linux-gnu"

%struct.mbedtls_ecp_group = type { i32, %struct.mbedtls_mpi, %struct.mbedtls_mpi, %struct.mbedtls_mpi, %struct.mbedtls_ecp_point, %struct.mbedtls_mpi, i64, i64, i32, ptr, ptr, ptr, ptr, ptr, i64 }
%struct.mbedtls_ecp_point = type { %struct.mbedtls_mpi, %struct.mbedtls_mpi, %struct.mbedtls_mpi }
%struct.mbedtls_mpi = type { ptr, i16, i16 }
%struct.mbedtls_ecp_keypair = type { %struct.mbedtls_ecp_group, %struct.mbedtls_mpi, %struct.mbedtls_ecp_point }

; Function Attrs: nounwind uwtable
define hidden i32 @mbedtls_ecp_get_type(ptr noundef %0) #0 {
  %2 = alloca i32, align 4
  %3 = alloca ptr, align 8
  store ptr %0, ptr %3, align 8, !tbaa !25
  %4 = load ptr, ptr %3, align 8, !tbaa !25
  %5 = getelementptr inbounds nuw %struct.mbedtls_ecp_group, ptr %4, i32 0, i32 4
  %6 = getelementptr inbounds nuw %struct.mbedtls_ecp_point, ptr %5, i32 0, i32 0
  %7 = getelementptr inbounds nuw %struct.mbedtls_mpi, ptr %6, i32 0, i32 0
  %8 = load ptr, ptr %7, align 8, !tbaa !27
  %9 = icmp eq ptr %8, null
  br i1 %9, label %10, label %11

10:                                               ; preds = %1
  store i32 0, ptr %2, align 4
  br label %20

11:                                               ; preds = %1
  %12 = load ptr, ptr %3, align 8, !tbaa !25
  %13 = getelementptr inbounds nuw %struct.mbedtls_ecp_group, ptr %12, i32 0, i32 4
  %14 = getelementptr inbounds nuw %struct.mbedtls_ecp_point, ptr %13, i32 0, i32 1
  %15 = getelementptr inbounds nuw %struct.mbedtls_mpi, ptr %14, i32 0, i32 0
  %16 = load ptr, ptr %15, align 8, !tbaa !33
  %17 = icmp eq ptr %16, null
  br i1 %17, label %18, label %19

18:                                               ; preds = %11
  store i32 2, ptr %2, align 4
  br label %20

19:                                               ; preds = %11
  store i32 1, ptr %2, align 4
  br label %20

20:                                               ; preds = %19, %18, %10
  %21 = load i32, ptr %2, align 4
  ret i32 %21
}

; Function Attrs: nounwind uwtable
define hidden i32 @mbedtls_ecp_read_key(i32 noundef %0, ptr noundef %1, ptr noundef %2, i64 noundef %3) #0 {
  %5 = alloca i32, align 4
  %6 = alloca i32, align 4
  %7 = alloca ptr, align 8
  %8 = alloca ptr, align 8
  %9 = alloca i64, align 8
  %10 = alloca i32, align 4
  %11 = alloca i32, align 4
  store i32 %0, ptr %6, align 4, !tbaa !3
  store ptr %1, ptr %7, align 8, !tbaa !45
  store ptr %2, ptr %8, align 8, !tbaa !22
  store i64 %3, ptr %9, align 8, !tbaa !7
  call void @llvm.lifetime.start.p0(i64 4, ptr %10) #11
  store i32 0, ptr %10, align 4, !tbaa !3
  %12 = load ptr, ptr %7, align 8, !tbaa !45
  %13 = getelementptr inbounds nuw %struct.mbedtls_ecp_keypair, ptr %12, i32 0, i32 0
  %14 = load i32, ptr %6, align 4, !tbaa !3
  %15 = call i32 @mbedtls_ecp_group_load(ptr noundef %13, i32 noundef %14)
  store i32 %15, ptr %10, align 4, !tbaa !3
  %16 = icmp ne i32 %15, 0
  br i1 %16, label %17, label %19

17:                                               ; preds = %4
  %18 = load i32, ptr %10, align 4, !tbaa !3
  store i32 %18, ptr %5, align 4
  store i32 1, ptr %11, align 4
  br label %177

19:                                               ; preds = %4
  store i32 -20096, ptr %10, align 4, !tbaa !3
  %20 = load ptr, ptr %7, align 8, !tbaa !45
  %21 = getelementptr inbounds nuw %struct.mbedtls_ecp_keypair, ptr %20, i32 0, i32 0
  %22 = call i32 @mbedtls_ecp_get_type(ptr noundef %21)
  %23 = icmp eq i32 %22, 2
  br i1 %23, label %24, label %136

24:                                               ; preds = %19
  %25 = load i32, ptr %6, align 4, !tbaa !3
  %26 = icmp eq i32 %25, 9
  br i1 %26, label %27, label %88

27:                                               ; preds = %24
  %28 = load i64, ptr %9, align 8, !tbaa !7
  %29 = icmp ne i64 %28, 32
  br i1 %29, label %30, label %31

30:                                               ; preds = %27
  store i32 -19584, ptr %5, align 4
  store i32 1, ptr %11, align 4
  br label %177

31:                                               ; preds = %27
  br label %32

32:                                               ; preds = %31
  %33 = load ptr, ptr %7, align 8, !tbaa !45
  %34 = getelementptr inbounds nuw %struct.mbedtls_ecp_keypair, ptr %33, i32 0, i32 1
  %35 = load ptr, ptr %8, align 8, !tbaa !22
  %36 = load i64, ptr %9, align 8, !tbaa !7
  %37 = call i32 @mbedtls_mpi_read_binary_le(ptr noundef %34, ptr noundef %35, i64 noundef %36)
  store i32 %37, ptr %10, align 4, !tbaa !3
  %38 = icmp ne i32 %37, 0
  br i1 %38, label %39, label %40

39:                                               ; preds = %32
  br label %169

40:                                               ; preds = %32
  br label %41

41:                                               ; preds = %40
  br label %42

42:                                               ; preds = %41
  br label %43

43:                                               ; preds = %42
  %44 = load ptr, ptr %7, align 8, !tbaa !45
  %45 = getelementptr inbounds nuw %struct.mbedtls_ecp_keypair, ptr %44, i32 0, i32 1
  %46 = call i32 @mbedtls_mpi_set_bit(ptr noundef %45, i64 noundef 0, i8 noundef zeroext 0)
  store i32 %46, ptr %10, align 4, !tbaa !3
  %47 = icmp ne i32 %46, 0
  br i1 %47, label %48, label %49

48:                                               ; preds = %43
  br label %169

49:                                               ; preds = %43
  br label %50

50:                                               ; preds = %49
  br label %51

51:                                               ; preds = %50
  br label %52

52:                                               ; preds = %51
  %53 = load ptr, ptr %7, align 8, !tbaa !45
  %54 = getelementptr inbounds nuw %struct.mbedtls_ecp_keypair, ptr %53, i32 0, i32 1
  %55 = call i32 @mbedtls_mpi_set_bit(ptr noundef %54, i64 noundef 1, i8 noundef zeroext 0)
  store i32 %55, ptr %10, align 4, !tbaa !3
  %56 = icmp ne i32 %55, 0
  br i1 %56, label %57, label %58

57:                                               ; preds = %52
  br label %169

58:                                               ; preds = %52
  br label %59

59:                                               ; preds = %58
  br label %60

60:                                               ; preds = %59
  br label %61

61:                                               ; preds = %60
  %62 = load ptr, ptr %7, align 8, !tbaa !45
  %63 = getelementptr inbounds nuw %struct.mbedtls_ecp_keypair, ptr %62, i32 0, i32 1
  %64 = call i32 @mbedtls_mpi_set_bit(ptr noundef %63, i64 noundef 2, i8 noundef zeroext 0)
  store i32 %64, ptr %10, align 4, !tbaa !3
  %65 = icmp ne i32 %64, 0
  br i1 %65, label %66, label %67

66:                                               ; preds = %61
  br label %169

67:                                               ; preds = %61
  br label %68

68:                                               ; preds = %67
  br label %69

69:                                               ; preds = %68
  br label %70

70:                                               ; preds = %69
  %71 = load ptr, ptr %7, align 8, !tbaa !45
  %72 = getelementptr inbounds nuw %struct.mbedtls_ecp_keypair, ptr %71, i32 0, i32 1
  %73 = call i32 @mbedtls_mpi_set_bit(ptr noundef %72, i64 noundef 255, i8 noundef zeroext 0)
  store i32 %73, ptr %10, align 4, !tbaa !3
  %74 = icmp ne i32 %73, 0
  br i1 %74, label %75, label %76

75:                                               ; preds = %70
  br label %169

76:                                               ; preds = %70
  br label %77

77:                                               ; preds = %76
  br label %78

78:                                               ; preds = %77
  br label %79

79:                                               ; preds = %78
  %80 = load ptr, ptr %7, align 8, !tbaa !45
  %81 = getelementptr inbounds nuw %struct.mbedtls_ecp_keypair, ptr %80, i32 0, i32 1
  %82 = call i32 @mbedtls_mpi_set_bit(ptr noundef %81, i64 noundef 254, i8 noundef zeroext 1)
  store i32 %82, ptr %10, align 4, !tbaa !3
  %83 = icmp ne i32 %82, 0
  br i1 %83, label %84, label %85

84:                                               ; preds = %79
  br label %169

85:                                               ; preds = %79
  br label %86

86:                                               ; preds = %85
  br label %87

87:                                               ; preds = %86
  br label %135

88:                                               ; preds = %24
  %89 = load i32, ptr %6, align 4, !tbaa !3
  %90 = icmp eq i32 %89, 13
  br i1 %90, label %91, label %134

91:                                               ; preds = %88
  %92 = load i64, ptr %9, align 8, !tbaa !7
  %93 = icmp ne i64 %92, 56
  br i1 %93, label %94, label %95

94:                                               ; preds = %91
  store i32 -19584, ptr %5, align 4
  store i32 1, ptr %11, align 4
  br label %177

95:                                               ; preds = %91
  br label %96

96:                                               ; preds = %95
  %97 = load ptr, ptr %7, align 8, !tbaa !45
  %98 = getelementptr inbounds nuw %struct.mbedtls_ecp_keypair, ptr %97, i32 0, i32 1
  %99 = load ptr, ptr %8, align 8, !tbaa !22
  %100 = load i64, ptr %9, align 8, !tbaa !7
  %101 = call i32 @mbedtls_mpi_read_binary_le(ptr noundef %98, ptr noundef %99, i64 noundef %100)
  store i32 %101, ptr %10, align 4, !tbaa !3
  %102 = icmp ne i32 %101, 0
  br i1 %102, label %103, label %104

103:                                              ; preds = %96
  br label %169

104:                                              ; preds = %96
  br label %105

105:                                              ; preds = %104
  br label %106

106:                                              ; preds = %105
  br label %107

107:                                              ; preds = %106
  %108 = load ptr, ptr %7, align 8, !tbaa !45
  %109 = getelementptr inbounds nuw %struct.mbedtls_ecp_keypair, ptr %108, i32 0, i32 1
  %110 = call i32 @mbedtls_mpi_set_bit(ptr noundef %109, i64 noundef 0, i8 noundef zeroext 0)
  store i32 %110, ptr %10, align 4, !tbaa !3
  %111 = icmp ne i32 %110, 0
  br i1 %111, label %112, label %113

112:                                              ; preds = %107
  br label %169

113:                                              ; preds = %107
  br label %114

114:                                              ; preds = %113
  br label %115

115:                                              ; preds = %114
  br label %116

116:                                              ; preds = %115
  %117 = load ptr, ptr %7, align 8, !tbaa !45
  %118 = getelementptr inbounds nuw %struct.mbedtls_ecp_keypair, ptr %117, i32 0, i32 1
  %119 = call i32 @mbedtls_mpi_set_bit(ptr noundef %118, i64 noundef 1, i8 noundef zeroext 0)
  store i32 %119, ptr %10, align 4, !tbaa !3
  %120 = icmp ne i32 %119, 0
  br i1 %120, label %121, label %122

121:                                              ; preds = %116
  br label %169

122:                                              ; preds = %116
  br label %123

123:                                              ; preds = %122
  br label %124

124:                                              ; preds = %123
  br label %125

125:                                              ; preds = %124
  %126 = load ptr, ptr %7, align 8, !tbaa !45
  %127 = getelementptr inbounds nuw %struct.mbedtls_ecp_keypair, ptr %126, i32 0, i32 1
  %128 = call i32 @mbedtls_mpi_set_bit(ptr noundef %127, i64 noundef 447, i8 noundef zeroext 1)
  store i32 %128, ptr %10, align 4, !tbaa !3
  %129 = icmp ne i32 %128, 0
  br i1 %129, label %130, label %131

130:                                              ; preds = %125
  br label %169

131:                                              ; preds = %125
  br label %132

132:                                              ; preds = %131
  br label %133

133:                                              ; preds = %132
  br label %134

134:                                              ; preds = %133, %88
  br label %135

135:                                              ; preds = %134, %87
  br label %136

136:                                              ; preds = %135, %19
  %137 = load ptr, ptr %7, align 8, !tbaa !45
  %138 = getelementptr inbounds nuw %struct.mbedtls_ecp_keypair, ptr %137, i32 0, i32 0
  %139 = call i32 @mbedtls_ecp_get_type(ptr noundef %138)
  %140 = icmp eq i32 %139, 1
  br i1 %140, label %141, label %153

141:                                              ; preds = %136
  br label %142

142:                                              ; preds = %141
  %143 = load ptr, ptr %7, align 8, !tbaa !45
  %144 = getelementptr inbounds nuw %struct.mbedtls_ecp_keypair, ptr %143, i32 0, i32 1
  %145 = load ptr, ptr %8, align 8, !tbaa !22
  %146 = load i64, ptr %9, align 8, !tbaa !7
  %147 = call i32 @mbedtls_mpi_read_binary(ptr noundef %144, ptr noundef %145, i64 noundef %146)
  store i32 %147, ptr %10, align 4, !tbaa !3
  %148 = icmp ne i32 %147, 0
  br i1 %148, label %149, label %150

149:                                              ; preds = %142
  br label %169

150:                                              ; preds = %142
  br label %151

151:                                              ; preds = %150
  br label %152

152:                                              ; preds = %151
  br label %153

153:                                              ; preds = %152, %136
  %154 = load i32, ptr %10, align 4, !tbaa !3
  %155 = icmp eq i32 %154, 0
  br i1 %155, label %156, label %168

156:                                              ; preds = %153
  br label %157

157:                                              ; preds = %156
  %158 = load ptr, ptr %7, align 8, !tbaa !45
  %159 = getelementptr inbounds nuw %struct.mbedtls_ecp_keypair, ptr %158, i32 0, i32 0
  %160 = load ptr, ptr %7, align 8, !tbaa !45
  %161 = getelementptr inbounds nuw %struct.mbedtls_ecp_keypair, ptr %160, i32 0, i32 1
  %162 = call i32 @mbedtls_ecp_check_privkey(ptr noundef %159, ptr noundef %161)
  store i32 %162, ptr %10, align 4, !tbaa !3
  %163 = icmp ne i32 %162, 0
  br i1 %163, label %164, label %165

164:                                              ; preds = %157
  br label %169

165:                                              ; preds = %157
  br label %166

166:                                              ; preds = %165
  br label %167

167:                                              ; preds = %166
  br label %168

168:                                              ; preds = %167, %153
  br label %169

169:                                              ; preds = %168, %164, %149, %130, %121, %112, %103, %84, %75, %66, %57, %48, %39
  %170 = load i32, ptr %10, align 4, !tbaa !3
  %171 = icmp ne i32 %170, 0
  br i1 %171, label %172, label %175

172:                                              ; preds = %169
  %173 = load ptr, ptr %7, align 8, !tbaa !45
  %174 = getelementptr inbounds nuw %struct.mbedtls_ecp_keypair, ptr %173, i32 0, i32 1
  call void @mbedtls_mpi_free(ptr noundef %174)
  br label %175

175:                                              ; preds = %172, %169
  %176 = load i32, ptr %10, align 4, !tbaa !3
  store i32 %176, ptr %5, align 4
  store i32 1, ptr %11, align 4
  br label %177

177:                                              ; preds = %175, %94, %30, %17
  call void @llvm.lifetime.end.p0(i64 4, ptr %10) #11
  %178 = load i32, ptr %5, align 4
  ret i32 %178
}