; Function Attrs: nounwind uwtable
define hidden i32 @mbedtls_ecp_read_key(i32 noundef %0, ptr noundef %1, ptr noundef %2, i64 noundef %3) local_unnamed_addr #7 {
  %5 = tail call i32 @mbedtls_ecp_group_load(ptr noundef %1, i32 noundef %0) #21
  %.not = icmp eq i32 %5, 0
  br i1 %.not, label %6, label %50

6:                                                ; preds = %4
  %7 = getelementptr inbounds nuw i8, ptr %1, i64 56
  %8 = load ptr, ptr %7, align 8, !tbaa !19
  %9 = icmp eq ptr %8, null
  br i1 %9, label %.thread, label %10

10:                                               ; preds = %6
  %11 = getelementptr inbounds nuw i8, ptr %1, i64 72
  %12 = load ptr, ptr %11, align 8, !tbaa !26
  %13 = icmp eq ptr %12, null
  br i1 %13, label %mbedtls_ecp_get_type.exit, label %mbedtls_ecp_get_type.exit.thread

mbedtls_ecp_get_type.exit:                        ; preds = %10
  switch i32 %0, label %mbedtls_ecp_get_type.exit.thread [
    i32 9, label %14
    i32 13, label %28
  ]

14:                                               ; preds = %mbedtls_ecp_get_type.exit
  %.not57 = icmp eq i64 %3, 32
  br i1 %.not57, label %15, label %50

15:                                               ; preds = %14
  %16 = getelementptr inbounds nuw i8, ptr %1, i64 192
  %17 = tail call i32 @mbedtls_mpi_read_binary_le(ptr noundef nonnull %16, ptr noundef %2, i64 noundef 32) #21
  %.not58 = icmp eq i32 %17, 0
  br i1 %.not58, label %18, label %.thread

18:                                               ; preds = %15
  %19 = tail call i32 @mbedtls_mpi_set_bit(ptr noundef nonnull %16, i64 noundef 0, i8 noundef zeroext 0) #21
  %.not59 = icmp eq i32 %19, 0
  br i1 %.not59, label %20, label %.thread

20:                                               ; preds = %18
  %21 = tail call i32 @mbedtls_mpi_set_bit(ptr noundef nonnull %16, i64 noundef 1, i8 noundef zeroext 0) #21
  %.not60 = icmp eq i32 %21, 0
  br i1 %.not60, label %22, label %.thread

22:                                               ; preds = %20
  %23 = tail call i32 @mbedtls_mpi_set_bit(ptr noundef nonnull %16, i64 noundef 2, i8 noundef zeroext 0) #21
  %.not61 = icmp eq i32 %23, 0
  br i1 %.not61, label %24, label %.thread

24:                                               ; preds = %22
  %25 = tail call i32 @mbedtls_mpi_set_bit(ptr noundef nonnull %16, i64 noundef 255, i8 noundef zeroext 0) #21
  %.not62 = icmp eq i32 %25, 0
  br i1 %.not62, label %26, label %.thread

26:                                               ; preds = %24
  %27 = tail call i32 @mbedtls_mpi_set_bit(ptr noundef nonnull %16, i64 noundef 254, i8 noundef zeroext 1) #21
  %.not63 = icmp eq i32 %27, 0
  br i1 %.not63, label %mbedtls_ecp_get_type.exit.thread, label %.thread

28:                                               ; preds = %mbedtls_ecp_get_type.exit
  %.not52 = icmp eq i64 %3, 56
  br i1 %.not52, label %29, label %50

29:                                               ; preds = %28
  %30 = getelementptr inbounds nuw i8, ptr %1, i64 192
  %31 = tail call i32 @mbedtls_mpi_read_binary_le(ptr noundef nonnull %30, ptr noundef %2, i64 noundef 56) #21
  %.not53 = icmp eq i32 %31, 0
  br i1 %.not53, label %32, label %.thread

32:                                               ; preds = %29
  %33 = tail call i32 @mbedtls_mpi_set_bit(ptr noundef nonnull %30, i64 noundef 0, i8 noundef zeroext 0) #21
  %.not54 = icmp eq i32 %33, 0
  br i1 %.not54, label %34, label %.thread

34:                                               ; preds = %32
  %35 = tail call i32 @mbedtls_mpi_set_bit(ptr noundef nonnull %30, i64 noundef 1, i8 noundef zeroext 0) #21
  %.not55 = icmp eq i32 %35, 0
  br i1 %.not55, label %36, label %.thread

36:                                               ; preds = %34
  %37 = tail call i32 @mbedtls_mpi_set_bit(ptr noundef nonnull %30, i64 noundef 447, i8 noundef zeroext 1) #21
  %.not56 = icmp eq i32 %37, 0
  br i1 %.not56, label %mbedtls_ecp_get_type.exit.thread, label %.thread

mbedtls_ecp_get_type.exit.thread:                 ; preds = %10, %mbedtls_ecp_get_type.exit, %26, %36
  %.old1.ph = phi i1 [ false, %10 ], [ false, %mbedtls_ecp_get_type.exit ], [ true, %36 ], [ true, %26 ]
  %.0.ph = phi i32 [ -20096, %10 ], [ -20096, %mbedtls_ecp_get_type.exit ], [ 0, %36 ], [ 0, %26 ]
  %.pr = load ptr, ptr %7, align 8, !tbaa !19
  %38 = icmp eq ptr %.pr, null
  br i1 %38, label %select.unfold69, label %39

39:                                               ; preds = %mbedtls_ecp_get_type.exit.thread
  %40 = load ptr, ptr %11, align 8, !tbaa !26
  %41 = icmp eq ptr %40, null
  br i1 %41, label %select.unfold69, label %mbedtls_ecp_get_type.exit67

mbedtls_ecp_get_type.exit67:                      ; preds = %39
  %42 = getelementptr inbounds nuw i8, ptr %1, i64 192
  %43 = tail call i32 @mbedtls_mpi_read_binary(ptr noundef nonnull %42, ptr noundef %2, i64 noundef %3) #21
  %44 = icmp eq i32 %43, 0
  br i1 %44, label %45, label %.thread

select.unfold69:                                  ; preds = %39, %mbedtls_ecp_get_type.exit.thread
  br i1 %.old1.ph, label %45, label %48

45:                                               ; preds = %mbedtls_ecp_get_type.exit67, %select.unfold69
  %46 = getelementptr inbounds nuw i8, ptr %1, i64 192
  %47 = tail call i32 @mbedtls_ecp_check_privkey(ptr noundef nonnull %1, ptr noundef nonnull %46)
  br label %48

48:                                               ; preds = %45, %select.unfold69
  %.1 = phi i32 [ %47, %45 ], [ %.0.ph, %select.unfold69 ]
  %.not64 = icmp eq i32 %.1, 0
  br i1 %.not64, label %50, label %.thread

.thread:                                          ; preds = %6, %36, %34, %32, %29, %mbedtls_ecp_get_type.exit67, %26, %24, %22, %20, %18, %15, %48
  %.173 = phi i32 [ %.1, %48 ], [ %37, %36 ], [ %35, %34 ], [ %33, %32 ], [ %31, %29 ], [ %43, %mbedtls_ecp_get_type.exit67 ], [ %27, %26 ], [ %25, %24 ], [ %23, %22 ], [ %21, %20 ], [ %19, %18 ], [ %17, %15 ], [ -20096, %6 ]
  %49 = getelementptr inbounds nuw i8, ptr %1, i64 192
  tail call void @mbedtls_mpi_free(ptr noundef nonnull %49) #21
  br label %50

50:                                               ; preds = %48, %.thread, %28, %14, %4
  %.034 = phi i32 [ %5, %4 ], [ -19584, %14 ], [ -19584, %28 ], [ %.173, %.thread ], [ 0, %48 ]
  ret i32 %.034
}